target datalayout = "e-m:e-p270:32:32-p271:32:32-p272:64:64-i64:64-i128:128-f80:128-n8:16:32:64-S128"
target triple = "x86_64-pc-linux-gnu"

%struct.ExpireMeta = type { i32, i16, i16, ptr }
%struct.listpackEx = type { %struct.ExpireMeta, ptr, ptr }

; Function Attrs: nounwind uwtable
define dso_local ptr @listpackExCreate() #1 {
  %1 = alloca ptr, align 8
  call void @llvm.lifetime.start.p0(i64 8, ptr %1) #12
  %2 = call noalias ptr @zcalloc(i64 noundef 32) #15
  store ptr %2, ptr %1, align 8, !tbaa !19
  %3 = load ptr, ptr %1, align 8, !tbaa !19
  %4 = getelementptr inbounds nuw %struct.listpackEx, ptr %3, i32 0, i32 0
  %5 = getelementptr inbounds nuw %struct.ExpireMeta, ptr %4, i32 0, i32 2
  %6 = load i16, ptr %5, align 2
  %7 = and i16 %6, -257
  %8 = or i16 %7, 256
  store i16 %8, ptr %5, align 2
  %9 = load ptr, ptr %1, align 8, !tbaa !19
  %10 = getelementptr inbounds nuw %struct.listpackEx, ptr %9, i32 0, i32 2
  store ptr null, ptr %10, align 8, !tbaa !21
  %11 = load ptr, ptr %1, align 8, !tbaa !19
  %12 = getelementptr inbounds nuw %struct.listpackEx, ptr %11, i32 0, i32 1
  store ptr null, ptr %12, align 8, !tbaa !26
  %13 = load ptr, ptr %1, align 8, !tbaa !19
  call void @llvm.lifetime.end.p0(i64 8, ptr %1) #12
  ret ptr %13
}