; Function Attrs: nounwind uwtable
define dso_local noalias noundef ptr @listpackExCreate() local_unnamed_addr #1 {
  %1 = tail call noalias dereferenceable_or_null(32) ptr @zcalloc(i64 noundef 32) #18
  %2 = getelementptr inbounds nuw i8, ptr %1, i64 6
  %3 = load i16, ptr %2, align 2
  %4 = or i16 %3, 256
  store i16 %4, ptr %2, align 2
  %5 = getelementptr inbounds nuw i8, ptr %1, i64 16
  tail call void @llvm.memset.p0.i64(ptr noundef nonnull align 8 dereferenceable(16) %5, i8 0, i64 16, i1 false)
  ret ptr %1
}